# SymbolsHelper-Confirmed: 6.0.0 amd64 armel armhf i386 powerpc ppc64 riscv64 s390x
libKF6Runner.so.6 libkf6runner6 #MINVER#
* Build-Depends-Package: libkf6runner-dev
 _ZGVZN9QMetaType21registerConverterImplI5QListI11RemoteMatchE9QIterableI13QMetaSequenceEEEbSt8functionIFbPKvPvEES_S_E10unregister@Base 6.0.0
 _ZGVZN9QMetaType21registerConverterImplI5QListI4QUrlE9QIterableI13QMetaSequenceEEEbSt8functionIFbPKvPvEES_S_E10unregister@Base 6.0.0
 _ZGVZN9QMetaType21registerConverterImplI5QListIN7KRunner6ActionEE9QIterableI13QMetaSequenceEEEbSt8functionIFbPKvPvEES_S_E10unregister@Base 6.0.0
 _ZGVZN9QMetaType23registerMutableViewImplI5QListI11RemoteMatchE9QIterableI13QMetaSequenceEEEbSt8functionIFbPvS8_EES_S_E10unregister@Base 6.0.0
 _ZGVZN9QMetaType23registerMutableViewImplI5QListI4QUrlE9QIterableI13QMetaSequenceEEEbSt8functionIFbPvS8_EES_S_E10unregister@Base 6.0.0
 _ZGVZN9QMetaType23registerMutableViewImplI5QListIN7KRunner6ActionEE9QIterableI13QMetaSequenceEEEbSt8functionIFbPvS9_EES_S_E10unregister@Base 6.0.0
 _ZN13QMetaSequence12MetaSequenceI5QListI11RemoteMatchEE5valueE@Base 6.0.0
 _ZN13QMetaSequence12MetaSequenceI5QListI4QUrlEE5valueE@Base 6.0.0
 _ZN13QMetaSequence12MetaSequenceI5QListIN7KRunner6ActionEEE5valueE@Base 6.0.0
 _ZN7KRunner10QueryMatch10setActionsERK5QListINS_6ActionEE@Base 6.0.0
 _ZN7KRunner10QueryMatch10setEnabledEb@Base 6.0.0
 _ZN7KRunner10QueryMatch10setSubtextERK7QString@Base 6.0.0
 _ZN7KRunner10QueryMatch11setIconNameERK7QString@Base 6.0.0
 _ZN7KRunner10QueryMatch12setMultiLineEb@Base 6.0.0
 _ZN7KRunner10QueryMatch12setRelevanceEd@Base 6.0.0
 _ZN7KRunner10QueryMatch16setMatchCategoryERK7QString@Base 6.0.0
 _ZN7KRunner10QueryMatch20setCategoryRelevanceEd@Base 6.0.0
 _ZN7KRunner10QueryMatch5setIdERK7QString@Base 6.0.0
 _ZN7KRunner10QueryMatch7setDataERK8QVariant@Base 6.0.0
 _ZN7KRunner10QueryMatch7setIconERK5QIcon@Base 6.0.0
 _ZN7KRunner10QueryMatch7setTextERK7QString@Base 6.0.0
 _ZN7KRunner10QueryMatch7setUrlsERK5QListI4QUrlE@Base 6.0.0
 _ZN7KRunner10QueryMatch9addActionERKNS_6ActionE@Base 6.0.0
 _ZN7KRunner10QueryMatchC1EPNS_14AbstractRunnerE@Base 6.0.0
 _ZN7KRunner10QueryMatchC1ERKS0_@Base 6.0.0
 _ZN7KRunner10QueryMatchC2EPNS_14AbstractRunnerE@Base 6.0.0
 _ZN7KRunner10QueryMatchC2ERKS0_@Base 6.0.0
 _ZN7KRunner10QueryMatchD1Ev@Base 6.0.0
 _ZN7KRunner10QueryMatchD2Ev@Base 6.0.0
 _ZN7KRunner10QueryMatchaSERKS0_@Base 6.0.0
 _ZN7KRunner12ResultsModel10resetLimitEv@Base 6.0.0
 _ZN7KRunner12ResultsModel11qt_metacallEN11QMetaObject4CallEiPPv@Base 6.0.0
 _ZN7KRunner12ResultsModel11qt_metacastEPKc@Base 6.0.0
 _ZN7KRunner12ResultsModel12limitChangedEv@Base 6.0.0
 _ZN7KRunner12ResultsModel14setFavoriteIdsERK5QListI7QStringE@Base 6.0.0
 _ZN7KRunner12ResultsModel14setQueryStringERK7QString@Base 6.0.0
 _ZN7KRunner12ResultsModel15queryingChangedEv@Base 6.0.0
 _ZN7KRunner12ResultsModel15setSingleRunnerERK7QString@Base 6.0.0
 _ZN7KRunner12ResultsModel16staticMetaObjectE@Base 6.0.0
 _ZN7KRunner12ResultsModel18favoriteIdsChangedEv@Base 6.0.0
 _ZN7KRunner12ResultsModel18queryStringChangedERK7QString@Base 6.0.0
 _ZN7KRunner12ResultsModel19singleRunnerChangedEv@Base 6.0.0
 _ZN7KRunner12ResultsModel26queryStringChangeRequestedERK7QStringi@Base 6.0.0
 _ZN7KRunner12ResultsModel3runERK11QModelIndex@Base 6.0.0
 _ZN7KRunner12ResultsModel5clearEv@Base 6.0.0
 _ZN7KRunner12ResultsModel8setLimitEi@Base 6.0.0
 _ZN7KRunner12ResultsModel9runActionERK11QModelIndexi@Base 6.0.0
 _ZN7KRunner12ResultsModelC1EP7QObject@Base 6.0.0
 _ZN7KRunner12ResultsModelC1ERK12KConfigGroupS3_P7QObject@Base 6.0.0
 _ZN7KRunner12ResultsModelC2EP7QObject@Base 6.0.0
 _ZN7KRunner12ResultsModelC2ERK12KConfigGroupS3_P7QObject@Base 6.0.0
 _ZN7KRunner12ResultsModelD0Ev@Base 6.0.0
 _ZN7KRunner12ResultsModelD1Ev@Base 6.0.0
 _ZN7KRunner12ResultsModelD2Ev@Base 6.0.0
 _ZN7KRunner12RunnerSyntaxC1ERK5QListI7QStringERKS2_@Base 6.0.0
 _ZN7KRunner12RunnerSyntaxC1ERKS0_@Base 6.0.0
 _ZN7KRunner12RunnerSyntaxC2ERK5QListI7QStringERKS2_@Base 6.0.0
 _ZN7KRunner12RunnerSyntaxC2ERKS0_@Base 6.0.0
 _ZN7KRunner12RunnerSyntaxD1Ev@Base 6.0.0
 _ZN7KRunner12RunnerSyntaxD2Ev@Base 6.0.0
 _ZN7KRunner12RunnerSyntaxaSERKS0_@Base 6.0.0
 _ZN7KRunner13RunnerContext10addMatchesERK5QListINS_10QueryMatchEE@Base 6.0.0
 _ZN7KRunner13RunnerContext8addMatchERKNS_10QueryMatchE@Base 6.0.0
 _ZN7KRunner13RunnerContext8setQueryERK7QString@Base 6.0.0
 _ZN7KRunner13RunnerContextC1EPNS_13RunnerManagerE@Base 6.0.0
 _ZN7KRunner13RunnerContextC1ERKS0_@Base 6.0.0
 _ZN7KRunner13RunnerContextC2EPNS_13RunnerManagerE@Base 6.0.0
 _ZN7KRunner13RunnerContextC2ERKS0_@Base 6.0.0
 _ZN7KRunner13RunnerContextD1Ev@Base 6.0.0
 _ZN7KRunner13RunnerContextD2Ev@Base 6.0.0
 _ZN7KRunner13RunnerContextaSERKS0_@Base 6.0.0
 _ZN7KRunner13RunnerManager10loadRunnerERK15KPluginMetaData@Base 6.0.0
 _ZN7KRunner13RunnerManager11launchQueryERK7QStringS3_@Base 6.0.0
 _ZN7KRunner13RunnerManager11qt_metacallEN11QMetaObject4CallEiPPv@Base 6.0.0
 _ZN7KRunner13RunnerManager11qt_metacastEPKc@Base 6.0.0
 _ZN7KRunner13RunnerManager13queryFinishedEv@Base 6.0.0
 _ZN7KRunner13RunnerManager14historyEnabledEv@Base 6.0.0
 _ZN7KRunner13RunnerManager14matchesChangedERK5QListINS_10QueryMatchEE@Base 6.0.0
 _ZN7KRunner13RunnerManager16staticMetaObjectE@Base 6.0.0
 _ZN7KRunner13RunnerManager17removeFromHistoryEi@Base 6.0.0
 _ZN7KRunner13RunnerManager17setAllowedRunnersERK5QListI7QStringE@Base 6.0.0
 _ZN7KRunner13RunnerManager17setHistoryEnabledEb@Base 6.0.0
 _ZN7KRunner13RunnerManager17setupMatchSessionEv@Base 6.0.0
 _ZN7KRunner13RunnerManager18runnerMetaDataListEv@Base 6.0.0
 _ZN7KRunner13RunnerManager19reloadConfigurationEv@Base 6.0.0
 _ZN7KRunner13RunnerManager20matchSessionCompleteEv@Base 6.0.0
 _ZN7KRunner13RunnerManager21historyEnabledChangedEv@Base 6.0.0
 _ZN7KRunner13RunnerManager24requestUpdateQueryStringERK7QStringi@Base 6.0.0
 _ZN7KRunner13RunnerManager31setHistoryEnvironmentIdentifierERK7QString@Base 6.0.0
 _ZN7KRunner13RunnerManager3runERKNS_10QueryMatchERKNS_6ActionE@Base 6.0.0
 _ZN7KRunner13RunnerManager5resetEv@Base 6.0.0
 _ZN7KRunner13RunnerManagerC1EP7QObject@Base 6.0.0
 _ZN7KRunner13RunnerManagerC1ERK12KConfigGroupS3_P7QObject@Base 6.0.0
 _ZN7KRunner13RunnerManagerC2EP7QObject@Base 6.0.0
 _ZN7KRunner13RunnerManagerC2ERK12KConfigGroupS3_P7QObject@Base 6.0.0
 _ZN7KRunner13RunnerManagerD0Ev@Base 6.0.0
 _ZN7KRunner13RunnerManagerD1Ev@Base 6.0.0
 _ZN7KRunner13RunnerManagerD2Ev@Base 6.0.0
 _ZN7KRunner14AbstractRunner11qt_metacallEN11QMetaObject4CallEiPPv@Base 6.0.0
 _ZN7KRunner14AbstractRunner11qt_metacastEPKc@Base 6.0.0
 _ZN7KRunner14AbstractRunner11setSyntaxesERK5QListINS_12RunnerSyntaxEE@Base 6.0.0
 _ZN7KRunner14AbstractRunner13setMatchRegexERK18QRegularExpression@Base 6.0.0
 _ZN7KRunner14AbstractRunner15setTriggerWordsERK5QListI7QStringE@Base 6.0.0
 _ZN7KRunner14AbstractRunner15suspendMatchingEb@Base 6.0.0
 _ZN7KRunner14AbstractRunner16mimeDataForMatchERKNS_10QueryMatchE@Base 6.0.0
 _ZN7KRunner14AbstractRunner16staticMetaObjectE@Base 6.0.0
 _ZN7KRunner14AbstractRunner17setMinLetterCountEi@Base 6.0.0
 _ZN7KRunner14AbstractRunner19reloadConfigurationEv@Base 6.0.0
 _ZN7KRunner14AbstractRunner3runERKNS_13RunnerContextERKNS_10QueryMatchE@Base 6.0.0
 _ZN7KRunner14AbstractRunner4initEv@Base 6.0.0
 _ZN7KRunner14AbstractRunner7prepareEv@Base 6.0.0
 _ZN7KRunner14AbstractRunner8teardownEv@Base 6.0.0
 _ZN7KRunner14AbstractRunner9addSyntaxERKNS_12RunnerSyntaxE@Base 6.0.0
 _ZN7KRunner14AbstractRunnerC1EP7QObjectRK15KPluginMetaData@Base 6.0.0
 _ZN7KRunner14AbstractRunnerC2EP7QObjectRK15KPluginMetaData@Base 6.0.0
 _ZN7KRunner14AbstractRunnerD0Ev@Base 6.0.0
 _ZN7KRunner14AbstractRunnerD1Ev@Base 6.0.0
 _ZN7KRunner14AbstractRunnerD2Ev@Base 6.0.0
 _ZN7KRunner25__changeCountBeforeSavingE@Base 6.0.0
 _ZN7KRunner6Action16staticMetaObjectE@Base 6.0.0
 _ZN7KRunner6ActionC1ERK7QStringS3_S3_@Base 6.0.0
 _ZN7KRunner6ActionC1ERKS0_@Base 6.0.0
 _ZN7KRunner6ActionC1Ev@Base 6.0.0
 _ZN7KRunner6ActionC2ERK7QStringS3_S3_@Base 6.0.0
 _ZN7KRunner6ActionC2ERKS0_@Base 6.0.0
 _ZN7KRunner6ActionC2Ev@Base 6.0.0
 _ZN7KRunner6ActionD1Ev@Base 6.0.0
 _ZN7KRunner6ActionD2Ev@Base 6.0.0
 _ZN7KRunner6ActionaSERKS0_@Base 6.0.0
 _ZN7KRunnerlsE6QDebugRKNS_10QueryMatchE@Base 6.0.0
 (optional=templinst)_ZNK12KConfigGroup9readEntryIbEET_PKcRKS1_@Base 6.0.0
 (optional=templinst)_ZNK12KConfigGroup9readEntryIiEET_PKcRKS1_@Base 6.0.0
 _ZNK7KRunner10QueryMatch11isMultiLineEv@Base 6.0.0
 _ZNK7KRunner10QueryMatch13matchCategoryEv@Base 6.0.0
 _ZNK7KRunner10QueryMatch14selectedActionEv@Base 6.0.0
 _ZNK7KRunner10QueryMatch17categoryRelevanceEv@Base 6.0.0
 _ZNK7KRunner10QueryMatch2idEv@Base 6.0.0
 _ZNK7KRunner10QueryMatch4dataEv@Base 6.0.0
 _ZNK7KRunner10QueryMatch4iconEv@Base 6.0.0
 _ZNK7KRunner10QueryMatch4textEv@Base 6.0.0
 _ZNK7KRunner10QueryMatch4urlsEv@Base 6.0.0
 _ZNK7KRunner10QueryMatch6runnerEv@Base 6.0.0
 _ZNK7KRunner10QueryMatch7actionsEv@Base 6.0.0
 _ZNK7KRunner10QueryMatch7isValidEv@Base 6.0.0
 _ZNK7KRunner10QueryMatch7subtextEv@Base 6.0.0
 _ZNK7KRunner10QueryMatch8iconNameEv@Base 6.0.0
 _ZNK7KRunner10QueryMatch9isEnabledEv@Base 6.0.0
 _ZNK7KRunner10QueryMatch9relevanceEv@Base 6.0.0
 _ZNK7KRunner10QueryMatcheqERKS0_@Base 6.0.0
 _ZNK7KRunner10QueryMatchneERKS0_@Base 6.0.0
 _ZNK7KRunner12ResultsModel10metaObjectEv@Base 6.0.0
 _ZNK7KRunner12ResultsModel11favoriteIdsEv@Base 6.0.0
 _ZNK7KRunner12ResultsModel11getMimeDataERK11QModelIndex@Base 6.0.0
 _ZNK7KRunner12ResultsModel11queryStringEv@Base 6.0.0
 _ZNK7KRunner12ResultsModel12singleRunnerEv@Base 6.0.0
 _ZNK7KRunner12ResultsModel13getQueryMatchERK11QModelIndex@Base 6.0.0
 _ZNK7KRunner12ResultsModel13runnerManagerEv@Base 6.0.0
 _ZNK7KRunner12ResultsModel20singleRunnerMetaDataEv@Base 6.0.0
 _ZNK7KRunner12ResultsModel5limitEv@Base 6.0.0
 _ZNK7KRunner12ResultsModel8queryingEv@Base 6.0.0
 _ZNK7KRunner12ResultsModel9roleNamesEv@Base 6.0.0
 _ZNK7KRunner12RunnerSyntax11descriptionEv@Base 6.0.0
 _ZNK7KRunner12RunnerSyntax14exampleQueriesEv@Base 6.0.0
 _ZNK7KRunner13RunnerContext21singleRunnerQueryModeEv@Base 6.0.0
 _ZNK7KRunner13RunnerContext24requestQueryStringUpdateERK7QStringi@Base 6.0.0
 _ZNK7KRunner13RunnerContext28ignoreCurrentMatchForHistoryEv@Base 6.0.0
 _ZNK7KRunner13RunnerContext5queryEv@Base 6.0.0
 _ZNK7KRunner13RunnerContext7isValidEv@Base 6.0.0
 _ZNK7KRunner13RunnerContext7matchesEv@Base 6.0.0
 _ZNK7KRunner13RunnerManager10metaObjectEv@Base 6.0.0
 _ZNK7KRunner13RunnerManager13searchContextEv@Base 6.0.0
 _ZNK7KRunner13RunnerManager16mimeDataForMatchERKNS_10QueryMatchE@Base 6.0.0
 _ZNK7KRunner13RunnerManager20getHistorySuggestionERK7QString@Base 6.0.0
 _ZNK7KRunner13RunnerManager23convertDBusRunnerToJsonERK7QString@Base 6.0.0
 _ZNK7KRunner13RunnerManager5queryEv@Base 6.0.0
 _ZNK7KRunner13RunnerManager6runnerERK7QString@Base 6.0.0
 _ZNK7KRunner13RunnerManager7historyEv@Base 6.0.0
 _ZNK7KRunner13RunnerManager7matchesEv@Base 6.0.0
 _ZNK7KRunner13RunnerManager7runnersEv@Base 6.0.0
 _ZNK7KRunner14AbstractRunner10matchRegexEv@Base 6.0.0
 _ZNK7KRunner14AbstractRunner10metaObjectEv@Base 6.0.0
 _ZNK7KRunner14AbstractRunner13hasMatchRegexEv@Base 6.0.0
 _ZNK7KRunner14AbstractRunner14minLetterCountEv@Base 6.0.0
 _ZNK7KRunner14AbstractRunner19isMatchingSuspendedEv@Base 6.0.0
 _ZNK7KRunner14AbstractRunner2idEv@Base 6.0.0
 _ZNK7KRunner14AbstractRunner4nameEv@Base 6.0.0
 _ZNK7KRunner14AbstractRunner6configEv@Base 6.0.0
 _ZNK7KRunner14AbstractRunner8metadataEv@Base 6.0.0
 _ZNK7KRunner14AbstractRunner8syntaxesEv@Base 6.0.0
 _ZNK7KRunner6Action10iconSourceEv@Base 6.0.0
 _ZNK7KRunner6Action2idEv@Base 6.0.0
 _ZNK7KRunner6Action4textEv@Base 6.0.0
 (optional=templinst)_ZNKSt8_Rb_treeI7QStringSt4pairIKS0_8QVariantESt10_Select1stIS4_ESt4lessIS0_ESaIS4_EE4findERS2_@Base 6.0.0
 (optional=templinst)_ZNKSt8_Rb_treeI7QStringSt4pairIKS0_N7KRunner10QueryMatchEESt10_Select1stIS5_ESt4lessIS0_ESaIS5_EE4findERS2_@Base 6.0.0
 (optional=templinst)_ZNSt8_Rb_treeI7QStringS0_St9_IdentityIS0_ESt4lessIS0_ESaIS0_EE11equal_rangeERKS0_@Base 6.0.0
 (optional=templinst)_ZNSt8_Rb_treeI7QStringSt4pairIKS0_8QVariantESt10_Select1stIS4_ESt4lessIS0_ESaIS4_EE24_M_get_insert_unique_posERS2_@Base 6.0.0
 (optional=templinst|arch=amd64 riscv64)_ZNSt8_Rb_treeI7QStringSt4pairIKS0_8QVariantESt10_Select1stIS4_ESt4lessIS0_ESaIS4_EE29_M_get_insert_hint_unique_posESt23_Rb_tree_const_iteratorIS4_ERS2_@Base 6.0.0
 (optional=templinst)_ZNSt8_Rb_treeI7QStringSt4pairIKS0_N7KRunner10QueryMatchEESt10_Select1stIS5_ESt4lessIS0_ESaIS5_EE24_M_get_insert_unique_posERS2_@Base 6.0.0
 (optional=templinst|arch=amd64 riscv64)_ZNSt8_Rb_treeI7QStringSt4pairIKS0_N7KRunner10QueryMatchEESt10_Select1stIS5_ESt4lessIS0_ESaIS5_EE29_M_get_insert_hint_unique_posESt23_Rb_tree_const_iteratorIS5_ERS2_@Base 6.0.0
 _ZTIN7KRunner12ResultsModelE@Base 6.0.0
 _ZTIN7KRunner13RunnerManagerE@Base 6.0.0
 _ZTIN7KRunner14AbstractRunnerE@Base 6.0.0
 (arch=armel riscv64)_ZTIN9__gnu_cxx7__mutexE@Base 6.0.0
 (arch=armel riscv64)_ZTISt11_Mutex_baseILN9__gnu_cxx12_Lock_policyE1EE@Base 6.0.0
 (arch=!armel !riscv64)_ZTISt11_Mutex_baseILN9__gnu_cxx12_Lock_policyE2EE@Base 6.0.0
 (arch=armel riscv64)_ZTISt15_Sp_counted_ptrIPSt3setI7QStringSt4lessIS1_ESaIS1_EELN9__gnu_cxx12_Lock_policyE1EE@Base 6.0.0
 (arch=!armel !riscv64)_ZTISt15_Sp_counted_ptrIPSt3setI7QStringSt4lessIS1_ESaIS1_EELN9__gnu_cxx12_Lock_policyE2EE@Base 6.0.0
 (arch=armel riscv64)_ZTISt16_Sp_counted_baseILN9__gnu_cxx12_Lock_policyE1EE@Base 6.0.0
 (arch=!armel !riscv64)_ZTISt16_Sp_counted_baseILN9__gnu_cxx12_Lock_policyE2EE@Base 6.0.0
 _ZTIZN9QMetaType17registerConverterI5QListI11RemoteMatchE9QIterableI13QMetaSequenceEN9QtPrivate33QSequentialIterableConvertFunctorIS3_EEEEbT1_EUlPKvPvE_@Base 6.0.0
 _ZTIZN9QMetaType17registerConverterI5QListI4QUrlE9QIterableI13QMetaSequenceEN9QtPrivate33QSequentialIterableConvertFunctorIS3_EEEEbT1_EUlPKvPvE_@Base 6.0.0
 _ZTIZN9QMetaType17registerConverterI5QListIN7KRunner6ActionEE9QIterableI13QMetaSequenceEN9QtPrivate33QSequentialIterableConvertFunctorIS4_EEEEbT1_EUlPKvPvE_@Base 6.0.0
 _ZTIZN9QMetaType19registerMutableViewI5QListI11RemoteMatchE9QIterableI13QMetaSequenceEN9QtPrivate37QSequentialIterableMutableViewFunctorIS3_EEEEbT1_EUlPvSB_E_@Base 6.0.0
 _ZTIZN9QMetaType19registerMutableViewI5QListI4QUrlE9QIterableI13QMetaSequenceEN9QtPrivate37QSequentialIterableMutableViewFunctorIS3_EEEEbT1_EUlPvSB_E_@Base 6.0.0
 _ZTIZN9QMetaType19registerMutableViewI5QListIN7KRunner6ActionEE9QIterableI13QMetaSequenceEN9QtPrivate37QSequentialIterableMutableViewFunctorIS4_EEEEbT1_EUlPvSC_E_@Base 6.0.0
 _ZTSN7KRunner12ResultsModelE@Base 6.0.0
 _ZTSN7KRunner13RunnerManagerE@Base 6.0.0
 _ZTSN7KRunner14AbstractRunnerE@Base 6.0.0
 (arch=armel riscv64)_ZTSN9__gnu_cxx7__mutexE@Base 6.0.0
 (arch=armel riscv64)_ZTSSt11_Mutex_baseILN9__gnu_cxx12_Lock_policyE1EE@Base 6.0.0
 (arch=!armel !riscv64)_ZTSSt11_Mutex_baseILN9__gnu_cxx12_Lock_policyE2EE@Base 6.0.0
 (arch=armel riscv64)_ZTSSt15_Sp_counted_ptrIPSt3setI7QStringSt4lessIS1_ESaIS1_EELN9__gnu_cxx12_Lock_policyE1EE@Base 6.0.0
 (arch=!armel !riscv64)_ZTSSt15_Sp_counted_ptrIPSt3setI7QStringSt4lessIS1_ESaIS1_EELN9__gnu_cxx12_Lock_policyE2EE@Base 6.0.0
 (arch=armel riscv64)_ZTSSt16_Sp_counted_baseILN9__gnu_cxx12_Lock_policyE1EE@Base 6.0.0
 (arch=!armel !riscv64)_ZTSSt16_Sp_counted_baseILN9__gnu_cxx12_Lock_policyE2EE@Base 6.0.0
 _ZTSZN9QMetaType17registerConverterI5QListI11RemoteMatchE9QIterableI13QMetaSequenceEN9QtPrivate33QSequentialIterableConvertFunctorIS3_EEEEbT1_EUlPKvPvE_@Base 6.0.0
 _ZTSZN9QMetaType17registerConverterI5QListI4QUrlE9QIterableI13QMetaSequenceEN9QtPrivate33QSequentialIterableConvertFunctorIS3_EEEEbT1_EUlPKvPvE_@Base 6.0.0
 _ZTSZN9QMetaType17registerConverterI5QListIN7KRunner6ActionEE9QIterableI13QMetaSequenceEN9QtPrivate33QSequentialIterableConvertFunctorIS4_EEEEbT1_EUlPKvPvE_@Base 6.0.0
 _ZTSZN9QMetaType19registerMutableViewI5QListI11RemoteMatchE9QIterableI13QMetaSequenceEN9QtPrivate37QSequentialIterableMutableViewFunctorIS3_EEEEbT1_EUlPvSB_E_@Base 6.0.0
 _ZTSZN9QMetaType19registerMutableViewI5QListI4QUrlE9QIterableI13QMetaSequenceEN9QtPrivate37QSequentialIterableMutableViewFunctorIS3_EEEEbT1_EUlPvSB_E_@Base 6.0.0
 _ZTSZN9QMetaType19registerMutableViewI5QListIN7KRunner6ActionEE9QIterableI13QMetaSequenceEN9QtPrivate37QSequentialIterableMutableViewFunctorIS4_EEEEbT1_EUlPvSC_E_@Base 6.0.0
 _ZTVN7KRunner12ResultsModelE@Base 6.0.0
 _ZTVN7KRunner13RunnerManagerE@Base 6.0.0
 _ZTVN7KRunner14AbstractRunnerE@Base 6.0.0
 (arch=armel riscv64)_ZTVSt15_Sp_counted_ptrIPSt3setI7QStringSt4lessIS1_ESaIS1_EELN9__gnu_cxx12_Lock_policyE1EE@Base 6.0.0
 (arch=!armel !riscv64)_ZTVSt15_Sp_counted_ptrIPSt3setI7QStringSt4lessIS1_ESaIS1_EELN9__gnu_cxx12_Lock_policyE2EE@Base 6.0.0
 (optional=templinst)_ZZN9QMetaType21registerConverterImplI5QListI11RemoteMatchE9QIterableI13QMetaSequenceEEEbSt8functionIFbPKvPvEES_S_E10unregister@Base 6.0.0
 (optional=templinst)_ZZN9QMetaType21registerConverterImplI5QListI4QUrlE9QIterableI13QMetaSequenceEEEbSt8functionIFbPKvPvEES_S_E10unregister@Base 6.0.0
 (optional=templinst)_ZZN9QMetaType21registerConverterImplI5QListIN7KRunner6ActionEE9QIterableI13QMetaSequenceEEEbSt8functionIFbPKvPvEES_S_E10unregister@Base 6.0.0
 (optional=templinst)_ZZN9QMetaType23registerMutableViewImplI5QListI11RemoteMatchE9QIterableI13QMetaSequenceEEEbSt8functionIFbPvS8_EES_S_E10unregister@Base 6.0.0
 (optional=templinst)_ZZN9QMetaType23registerMutableViewImplI5QListI4QUrlE9QIterableI13QMetaSequenceEEEbSt8functionIFbPvS8_EES_S_E10unregister@Base 6.0.0
 (optional=templinst)_ZZN9QMetaType23registerMutableViewImplI5QListIN7KRunner6ActionEE9QIterableI13QMetaSequenceEEEbSt8functionIFbPvS9_EES_S_E10unregister@Base 6.0.0
